target datalayout = "e-m:e-p270:32:32-p271:32:32-p272:64:64-i64:64-i128:128-f80:128-n8:16:32:64-S128"
target triple = "x86_64-pc-linux-gnu"

@.str = private unnamed_addr constant [4 x i8] c"lib\00", align 1
@.str.1 = private unnamed_addr constant [4 x i8] c".so\00", align 1

; Function Attrs: nounwind uwtable
define ptr @dt_module_load_modules(ptr noundef %0, i64 noundef %1, ptr noundef %2, ptr noundef %3, ptr noundef %4) #0 {
  %6 = alloca ptr, align 8
  %7 = alloca ptr, align 8
  %8 = alloca i64, align 8
  %9 = alloca ptr, align 8
  %10 = alloca ptr, align 8
  %11 = alloca ptr, align 8
  %12 = alloca ptr, align 8
  %13 = alloca [4096 x i8], align 16
  %14 = alloca ptr, align 8
  %15 = alloca ptr, align 8
  %16 = alloca i32, align 4
  %17 = alloca i32, align 4
  %18 = alloca i32, align 4
  %19 = alloca ptr, align 8
  %20 = alloca ptr, align 8
  %21 = alloca ptr, align 8
  %22 = alloca i32, align 4
  store ptr %0, ptr %7, align 8, !tbaa !6
  store i64 %1, ptr %8, align 8, !tbaa !11
  store ptr %2, ptr %9, align 8, !tbaa !13
  store ptr %3, ptr %10, align 8, !tbaa !13
  store ptr %4, ptr %11, align 8, !tbaa !13
  call void @llvm.lifetime.start.p0(i64 8, ptr %12) #7
  store ptr null, ptr %12, align 8, !tbaa !14
  call void @llvm.lifetime.start.p0(i64 4096, ptr %13) #7
  call void @llvm.memset.p0.i64(ptr align 16 %13, i8 0, i64 4096, i1 false)
  call void @llvm.lifetime.start.p0(i64 8, ptr %14) #7
  %23 = getelementptr inbounds [4096 x i8], ptr %13, i64 0, i64 0
  call void @dt_loc_get_plugindir(ptr noundef %23, i64 noundef 4096)
  %24 = getelementptr inbounds [4096 x i8], ptr %13, i64 0, i64 0
  %25 = load ptr, ptr %7, align 8, !tbaa !6
  %26 = call i64 @g_strlcat(ptr noundef %24, ptr noundef %25, i64 noundef 4096)
  call void @llvm.lifetime.start.p0(i64 8, ptr %15) #7
  %27 = getelementptr inbounds [4096 x i8], ptr %13, i64 0, i64 0
  %28 = call ptr @g_dir_open(ptr noundef %27, i32 noundef 0, ptr noundef null)
  store ptr %28, ptr %15, align 8, !tbaa !16
  %29 = load ptr, ptr %15, align 8, !tbaa !16
  %30 = icmp ne ptr %29, null
  br i1 %30, label %32, label %31

31:                                               ; preds = %5
  store ptr null, ptr %6, align 8
  store i32 1, ptr %16, align 4
  br label %96

32:                                               ; preds = %5
  call void @llvm.lifetime.start.p0(i64 4, ptr %17) #7
  store i32 3, ptr %17, align 4, !tbaa !18
  call void @llvm.lifetime.start.p0(i64 4, ptr %18) #7
  store i32 6, ptr %18, align 4, !tbaa !18
  br label %33

33:                                               ; preds = %82, %80, %46, %41, %32
  %34 = load ptr, ptr %15, align 8, !tbaa !16
  %35 = call ptr @g_dir_read_name(ptr noundef %34)
  store ptr %35, ptr %14, align 8, !tbaa !6
  %36 = icmp ne ptr %35, null
  br i1 %36, label %37, label %83

37:                                               ; preds = %33
  %38 = load ptr, ptr %14, align 8, !tbaa !6
  %39 = call i32 @g_str_has_prefix(ptr noundef %38, ptr noundef @.str)
  %40 = icmp ne i32 %39, 0
  br i1 %40, label %42, label %41

41:                                               ; preds = %37
  br label %33

42:                                               ; preds = %37
  %43 = load ptr, ptr %14, align 8, !tbaa !6
  %44 = call i32 @g_str_has_suffix(ptr noundef %43, ptr noundef @.str.1)
  %45 = icmp ne i32 %44, 0
  br i1 %45, label %47, label %46

46:                                               ; preds = %42
  br label %33

47:                                               ; preds = %42
  call void @llvm.lifetime.start.p0(i64 8, ptr %19) #7
  %48 = load ptr, ptr %14, align 8, !tbaa !6
  %49 = getelementptr inbounds i8, ptr %48, i64 3
  %50 = load ptr, ptr %14, align 8, !tbaa !6
  %51 = call i64 @strlen(ptr noundef %50) #8
  %52 = sub i64 %51, 6
  %53 = call noalias ptr @g_strndup(ptr noundef %49, i64 noundef %52)
  store ptr %53, ptr %19, align 8, !tbaa !6
  call void @llvm.lifetime.start.p0(i64 8, ptr %20) #7
  %54 = load i64, ptr %8, align 8, !tbaa !11
  %55 = call noalias ptr @calloc(i64 noundef 1, i64 noundef %54) #9
  store ptr %55, ptr %20, align 8, !tbaa !13
  call void @llvm.lifetime.start.p0(i64 8, ptr %21) #7
  %56 = getelementptr inbounds [4096 x i8], ptr %13, i64 0, i64 0
  %57 = load ptr, ptr %19, align 8, !tbaa !6
  %58 = call ptr @g_module_build_path(ptr noundef %56, ptr noundef %57)
  store ptr %58, ptr %21, align 8, !tbaa !6
  call void @llvm.lifetime.start.p0(i64 4, ptr %22) #7
  %59 = load ptr, ptr %9, align 8, !tbaa !13
  %60 = load ptr, ptr %20, align 8, !tbaa !13
  %61 = load ptr, ptr %21, align 8, !tbaa !6
  %62 = load ptr, ptr %19, align 8, !tbaa !6
  %63 = call i32 %59(ptr noundef %60, ptr noundef %61, ptr noundef %62)
  store i32 %63, ptr %22, align 4, !tbaa !18
  %64 = load ptr, ptr %21, align 8, !tbaa !6
  call void @g_free(ptr noundef %64)
  %65 = load ptr, ptr %19, align 8, !tbaa !6
  call void @g_free(ptr noundef %65)
  %66 = load i32, ptr %22, align 4, !tbaa !18
  %67 = icmp ne i32 %66, 0
  br i1 %67, label %68, label %70

68:                                               ; preds = %47
  %69 = load ptr, ptr %20, align 8, !tbaa !13
  call void @free(ptr noundef %69) #7
  store i32 2, ptr %16, align 4
  br label %80

70:                                               ; preds = %47
  %71 = load ptr, ptr %12, align 8, !tbaa !14
  %72 = load ptr, ptr %20, align 8, !tbaa !13
  %73 = call ptr @g_list_prepend(ptr noundef %71, ptr noundef %72)
  store ptr %73, ptr %12, align 8, !tbaa !14
  %74 = load ptr, ptr %10, align 8, !tbaa !13
  %75 = icmp ne ptr %74, null
  br i1 %75, label %76, label %79

76:                                               ; preds = %70
  %77 = load ptr, ptr %10, align 8, !tbaa !13
  %78 = load ptr, ptr %20, align 8, !tbaa !13
  call void %77(ptr noundef %78)
  br label %79

79:                                               ; preds = %76, %70
  store i32 0, ptr %16, align 4
  br label %80

80:                                               ; preds = %79, %68
  call void @llvm.lifetime.end.p0(i64 4, ptr %22) #7
  call void @llvm.lifetime.end.p0(i64 8, ptr %21) #7
  call void @llvm.lifetime.end.p0(i64 8, ptr %20) #7
  call void @llvm.lifetime.end.p0(i64 8, ptr %19) #7
  %81 = load i32, ptr %16, align 4
  switch i32 %81, label %98 [
    i32 0, label %82
    i32 2, label %33
  ]

82:                                               ; preds = %80
  br label %33

83:                                               ; preds = %33
  %84 = load ptr, ptr %15, align 8, !tbaa !16
  call void @g_dir_close(ptr noundef %84)
  %85 = load ptr, ptr %11, align 8, !tbaa !13
  %86 = icmp ne ptr %85, null
  br i1 %86, label %87, label %91

87:                                               ; preds = %83
  %88 = load ptr, ptr %12, align 8, !tbaa !14
  %89 = load ptr, ptr %11, align 8, !tbaa !13
  %90 = call ptr @g_list_sort(ptr noundef %88, ptr noundef %89)
  store ptr %90, ptr %12, align 8, !tbaa !14
  br label %94

91:                                               ; preds = %83
  %92 = load ptr, ptr %12, align 8, !tbaa !14
  %93 = call ptr @g_list_reverse(ptr noundef %92)
  store ptr %93, ptr %12, align 8, !tbaa !14
  br label %94

94:                                               ; preds = %91, %87
  %95 = load ptr, ptr %12, align 8, !tbaa !14
  store ptr %95, ptr %6, align 8
  store i32 1, ptr %16, align 4
  call void @llvm.lifetime.end.p0(i64 4, ptr %18) #7
  call void @llvm.lifetime.end.p0(i64 4, ptr %17) #7
  br label %96

96:                                               ; preds = %94, %31
  call void @llvm.lifetime.end.p0(i64 8, ptr %15) #7
  call void @llvm.lifetime.end.p0(i64 8, ptr %14) #7
  call void @llvm.lifetime.end.p0(i64 4096, ptr %13) #7
  call void @llvm.lifetime.end.p0(i64 8, ptr %12) #7
  %97 = load ptr, ptr %6, align 8
  ret ptr %97

98:                                               ; preds = %80
  unreachable
}

; Function Attrs: nocallback nofree nosync nounwind willreturn memory(argmem: readwrite)
declare void @llvm.lifetime.start.p0(i64 immarg, ptr captures(none)) #1

; Function Attrs: nocallback nofree nounwind willreturn memory(argmem: write)
declare void @llvm.memset.p0.i64(ptr writeonly captures(none), i8, i64, i1 immarg) #2

declare void @dt_loc_get_plugindir(ptr noundef, i64 noundef) #3

declare i64 @g_strlcat(ptr noundef, ptr noundef, i64 noundef) #3

declare ptr @g_dir_open(ptr noundef, i32 noundef, ptr noundef) #3

declare ptr @g_dir_read_name(ptr noundef) #3

declare i32 @g_str_has_prefix(ptr noundef, ptr noundef) #3

declare i32 @g_str_has_suffix(ptr noundef, ptr noundef) #3

declare noalias ptr @g_strndup(ptr noundef, i64 noundef) #3

; Function Attrs: nounwind willreturn memory(read)
declare i64 @strlen(ptr noundef) #4

; Function Attrs: nounwind allocsize(0,1)
declare noalias ptr @calloc(i64 noundef, i64 noundef) #5

declare ptr @g_module_build_path(ptr noundef, ptr noundef) #3

declare void @g_free(ptr noundef) #3

; Function Attrs: nounwind
declare void @free(ptr noundef) #6

declare ptr @g_list_prepend(ptr noundef, ptr noundef) #3

; Function Attrs: nocallback nofree nosync nounwind willreturn memory(argmem: readwrite)
declare void @llvm.lifetime.end.p0(i64 immarg, ptr captures(none)) #1

declare void @g_dir_close(ptr noundef) #3

declare ptr @g_list_sort(ptr noundef, ptr noundef) #3

declare ptr @g_list_reverse(ptr noundef) #3


!llvm.module.flags = !{!0, !1, !2, !3, !4, !5}

!0 = !{i32 7, !"Dwarf Version", i32 5}
!1 = !{i32 2, !"Debug Info Version", i32 3}
!2 = !{i32 1, !"wchar_size", i32 4}
!3 = !{i32 8, !"PIC Level", i32 2}
!4 = !{i32 7, !"uwtable", i32 2}
!5 = !{i32 7, !"debug-info-assignment-tracking", i1 true}
!6 = !{!7, !7, i64 0}
!7 = !{!"p1 omnipotent char", !8, i64 0}
!8 = !{!"any pointer", !9, i64 0}
!9 = !{!"omnipotent char", !10, i64 0}
!10 = !{!"Simple C/C++ TBAA"}
!11 = !{!12, !12, i64 0}
!12 = !{!"long", !9, i64 0}
!13 = !{!8, !8, i64 0}
!14 = !{!15, !15, i64 0}
!15 = !{!"p1 _ZTS6_GList", !8, i64 0}
!16 = !{!17, !17, i64 0}
!17 = !{!"p1 _ZTS5_GDir", !8, i64 0}
!18 = !{!19, !19, i64 0}
!19 = !{!"int", !9, i64 0}
